target datalayout = "e-m:e-p270:32:32-p271:32:32-p272:64:64-i64:64-i128:128-f80:128-n8:16:32:64-S128"
target triple = "x86_64-pc-linux-gnu"

%class.Phase = type { i32, ptr }
%class.PhaseTransform = type { ptr, %class.Phase }
%class.PhasePeephole = type { %class.PhaseTransform, ptr, ptr }

@_ZTV13PhasePeephole = hidden unnamed_addr constant { [4 x ptr] } { [4 x ptr] [ptr null, ptr null, ptr @_ZN13PhasePeephole9transformEP4Node, ptr @_ZN14PhaseTransform12is_dominatorEP4NodeS1_] }, align 8
@_ZTV14PhaseTransform = linkonce_odr hidden unnamed_addr constant { [4 x ptr] } { [4 x ptr] [ptr null, ptr null, ptr @__cxa_pure_virtual, ptr @_ZN14PhaseTransform12is_dominatorEP4NodeS1_] }, comdat, align 8

; Function Attrs: mustprogress nounwind uwtable
define linkonce_odr hidden void @_ZN14PhaseTransformC2EN5Phase11PhaseNumberE(ptr noundef nonnull align 8 dereferenceable(24) %0, i32 noundef %1) unnamed_addr #1 comdat align 2 {
  %3 = alloca ptr, align 8
  %4 = alloca i32, align 4
  store ptr %0, ptr %3, align 8
  store i32 %1, ptr %4, align 4
  %5 = load ptr, ptr %3, align 8
  %6 = getelementptr inbounds i8, ptr %5, i64 8
  %7 = load i32, ptr %4, align 4
  call void @_ZN5PhaseC2ENS_11PhaseNumberE(ptr noundef nonnull align 8 dereferenceable(16) %6, i32 noundef %7)
  store ptr getelementptr inbounds inrange(-16, 16) ({ [4 x ptr] }, ptr @_ZTV14PhaseTransform, i32 0, i32 0, i32 2), ptr %5, align 8
  ret void
}

; Function Attrs: mustprogress nounwind uwtable
define hidden void @_ZN13PhasePeepholeC2EP13PhaseRegAllocR8PhaseCFG(ptr noundef nonnull align 8 dereferenceable(40) %0, ptr noundef %1, ptr noundef nonnull align 8 dereferenceable(160) %2) unnamed_addr #1 align 2 {
  %4 = alloca ptr, align 8
  %5 = alloca ptr, align 8
  %6 = alloca ptr, align 8
  store ptr %0, ptr %4, align 8
  store ptr %1, ptr %5, align 8
  store ptr %2, ptr %6, align 8
  %7 = load ptr, ptr %4, align 8
  call void @_ZN14PhaseTransformC2EN5Phase11PhaseNumberE(ptr noundef nonnull align 8 dereferenceable(24) %7, i32 noundef 16)
  store ptr getelementptr inbounds inrange(-16, 16) ({ [4 x ptr] }, ptr @_ZTV13PhasePeephole, i32 0, i32 0, i32 2), ptr %7, align 8
  %8 = getelementptr inbounds %class.PhasePeephole, ptr %7, i32 0, i32 1
  %9 = load ptr, ptr %5, align 8
  store ptr %9, ptr %8, align 8
  %10 = getelementptr inbounds %class.PhasePeephole, ptr %7, i32 0, i32 2
  %11 = load ptr, ptr %6, align 8
  store ptr %11, ptr %10, align 8
  ret void
}