; Function Attrs: mustprogress nounwind uwtable
define hidden void @_ZN13PhasePeepholeC2EP13PhaseRegAllocR8PhaseCFG(ptr noundef nonnull align 8 dereferenceable(40) %0, ptr noundef %1, ptr noundef nonnull align 8 dereferenceable(160) %2) unnamed_addr #0 align 2 {
  %4 = getelementptr inbounds i8, ptr %0, i64 8
  tail call void @_ZN5PhaseC2ENS_11PhaseNumberE(ptr noundef nonnull align 8 dereferenceable(16) %4, i32 noundef 16) #16
  store ptr getelementptr inbounds inrange(-16, 16) (i8, ptr @_ZTV13PhasePeephole, i64 16), ptr %0, align 8
  %5 = getelementptr inbounds i8, ptr %0, i64 24
  store ptr %1, ptr %5, align 8
  %6 = getelementptr inbounds i8, ptr %0, i64 32
  store ptr %2, ptr %6, align 8
  ret void
}